
led.elf:     file format elf32-littleriscv


Disassembly of section .vectors:

00000000 <_stack_start-0x10000>:

  // external interrupts are handled by the same callback
  // until compiler supports IRQ routines
  .org 0x00
  .rept 31
  nop
   0:	00000013          	nop
   4:	00000013          	nop
   8:	00000013          	nop
   c:	00000013          	nop
  10:	00000013          	nop
  14:	00000013          	nop
  18:	00000013          	nop
  1c:	00000013          	nop
  20:	00000013          	nop
  24:	00000013          	nop
  28:	00000013          	nop
  2c:	00000013          	nop
  30:	00000013          	nop
  34:	00000013          	nop
  38:	00000013          	nop
  3c:	00000013          	nop
  40:	00000013          	nop
  44:	00000013          	nop
  48:	00000013          	nop
  4c:	00000013          	nop
  50:	00000013          	nop
  54:	00000013          	nop
  58:	00000013          	nop
  5c:	00000013          	nop
  60:	00000013          	nop
  64:	00000013          	nop
  68:	00000013          	nop
  6c:	00000013          	nop
  70:	00000013          	nop
  74:	00000013          	nop
  78:	00000013          	nop
  .endr
  jal x0, default_exc_handler
  7c:	01e0006f          	j	9a <default_exc_handler>

  // reset vector
  .org 0x80
  jal x0, reset_handler
  80:	01e0006f          	j	9e <reset_handler>

  // illegal instruction exception
  .org 0x84
  jal x0, default_exc_handler
  84:	0160006f          	j	9a <default_exc_handler>

  // ecall handler
  .org 0x88
  jal x0, default_exc_handler
  88:	0120006f          	j	9a <default_exc_handler>

Disassembly of section .text:

0000008c <delay_loop_ibex>:
/**
 * Delay loop executing within 8 cycles on ibex
 */
static void delay_loop_ibex(unsigned long loops) {
  int out; /* only to notify compiler of modifications to |loops| */
  asm volatile(
  8c:	0001                	nop
  8e:	0001                	nop
  90:	0001                	nop
  92:	0001                	nop
  94:	157d                	addi	a0,a0,-1
  96:	f97d                	bnez	a0,8c <delay_loop_ibex>
      "   addi %1, %1, -1 \n" // 1 cycle
      "   bnez %1, 1b     \n" // 3 cycles
      : "=&r" (out)
      : "0" (loops)
  );
}
  98:	8082                	ret

0000009a <default_exc_handler>:
  jal x0, default_exc_handler
  9a:	0000006f          	j	9a <default_exc_handler>

0000009e <reset_handler>:
  mv  x1, x0
  9e:	00000093          	li	ra,0
  mv  x2, x1
  a2:	8106                	mv	sp,ra
  mv  x3, x1
  a4:	8186                	mv	gp,ra
  mv  x4, x1
  a6:	8206                	mv	tp,ra
  mv  x5, x1
  a8:	8286                	mv	t0,ra
  mv  x6, x1
  aa:	8306                	mv	t1,ra
  mv  x7, x1
  ac:	8386                	mv	t2,ra
  mv  x8, x1
  ae:	8406                	mv	s0,ra
  mv  x9, x1
  b0:	8486                	mv	s1,ra
  mv x10, x1
  b2:	8506                	mv	a0,ra
  mv x11, x1
  b4:	8586                	mv	a1,ra
  mv x12, x1
  b6:	8606                	mv	a2,ra
  mv x13, x1
  b8:	8686                	mv	a3,ra
  mv x14, x1
  ba:	8706                	mv	a4,ra
  mv x15, x1
  bc:	8786                	mv	a5,ra
  mv x16, x1
  be:	8806                	mv	a6,ra
  mv x17, x1
  c0:	8886                	mv	a7,ra
  mv x18, x1
  c2:	8906                	mv	s2,ra
  mv x19, x1
  c4:	8986                	mv	s3,ra
  mv x20, x1
  c6:	8a06                	mv	s4,ra
  mv x21, x1
  c8:	8a86                	mv	s5,ra
  mv x22, x1
  ca:	8b06                	mv	s6,ra
  mv x23, x1
  cc:	8b86                	mv	s7,ra
  mv x24, x1
  ce:	8c06                	mv	s8,ra
  mv x25, x1
  d0:	8c86                	mv	s9,ra
  mv x26, x1
  d2:	8d06                	mv	s10,ra
  mv x27, x1
  d4:	8d86                	mv	s11,ra
  mv x28, x1
  d6:	8e06                	mv	t3,ra
  mv x29, x1
  d8:	8e86                	mv	t4,ra
  mv x30, x1
  da:	8f06                	mv	t5,ra
  mv x31, x1
  dc:	8f86                	mv	t6,ra
  la   x2, _stack_start
  de:	00010117          	auipc	sp,0x10
  e2:	f2210113          	addi	sp,sp,-222 # 10000 <_stack_start>

000000e6 <_start>:
  la x26, _bss_start
  e6:	16800d13          	li	s10,360
  la x27, _bss_end
  ea:	16800d93          	li	s11,360
  bge x26, x27, zero_loop_end
  ee:	01bd5763          	bge	s10,s11,fc <main_entry>

000000f2 <zero_loop>:
  sw x0, 0(x26)
  f2:	000d2023          	sw	zero,0(s10)
  addi x26, x26, 4
  f6:	0d11                	addi	s10,s10,4
  ble x26, x27, zero_loop
  f8:	ffaddde3          	bge	s11,s10,f2 <zero_loop>

000000fc <main_entry>:
  addi x10, x0, 0
  fc:	4501                	li	a0,0
  addi x11, x0, 0
  fe:	4581                	li	a1,0
  jal x1, main
 100:	004000ef          	jal	ra,104 <main>

00000104 <main>:

static int usleep(unsigned long usec) {
  return usleep_ibex(usec);
}

int main(int argc, char **argv) {
 104:	1101                	addi	sp,sp,-32
 106:	cc22                	sw	s0,24(sp)
 108:	ca26                	sw	s1,20(sp)
 10a:	c64e                	sw	s3,12(sp)
 10c:	c452                	sw	s4,8(sp)
 10e:	ce06                	sw	ra,28(sp)
 110:	c84a                	sw	s2,16(sp)
  // The lowest four bits of the highest byte written to the memory region named
  // "stack" are connected to the LEDs of the board.
  volatile uint8_t *var = (volatile uint8_t *) 0x0000c010;
  *var = 0x00;
 112:	67b1                	lui	a5,0xc

  uint32_t num = 0xD9CE4B9E; 
 114:	d9ce5437          	lui	s0,0xd9ce5
  delay_loop_ibex(usec_cycles);
 118:	005f64b7          	lui	s1,0x5f6
  *var = 0x00;
 11c:	00078823          	sb	zero,16(a5) # c010 <_stack_len+0x8010>
  uint32_t num = 0xD9CE4B9E; 
 120:	b9e40413          	addi	s0,s0,-1122 # d9ce4b9e <_stack_start+0xd9cd4b9e>
  delay_loop_ibex(usec_cycles);
 124:	e1048493          	addi	s1,s1,-496 # 5f5e10 <_stack_start+0x5e5e10>

  while (1) {
    for(int i = 24; i >= 0; i -= 8)
    {
      usleep(1000 * 1000); // 1000 ms
      *var = num >> i;
 128:	69b1                	lui	s3,0xc
    for(int i = 24; i >= 0; i -= 8)
 12a:	5a61                	li	s4,-8
 12c:	4961                	li	s2,24
  delay_loop_ibex(usec_cycles);
 12e:	8526                	mv	a0,s1
 130:	3fb1                	jal	8c <delay_loop_ibex>
      *var = num >> i;
 132:	012457b3          	srl	a5,s0,s2
 136:	0ff7f793          	zext.b	a5,a5
 13a:	00f98823          	sb	a5,16(s3) # c010 <_stack_len+0x8010>
    for(int i = 24; i >= 0; i -= 8)
 13e:	1961                	addi	s2,s2,-8
 140:	ff4917e3          	bne	s2,s4,12e <main+0x2a>
  delay_loop_ibex(usec_cycles);
 144:	8526                	mv	a0,s1
 146:	3799                	jal	8c <delay_loop_ibex>
 148:	8526                	mv	a0,s1
    }
    usleep(1000 * 1000); // 1000 ms
    *var = 0x00;
 14a:	00098823          	sb	zero,16(s3)
  delay_loop_ibex(usec_cycles);
 14e:	3f3d                	jal	8c <delay_loop_ibex>
    usleep(1000 * 1000); // 1000 ms
    num = ~num;
 150:	fff44413          	not	s0,s0
    for(int i = 24; i >= 0; i -= 8)
 154:	bfe1                	j	12c <main+0x28>

00000156 <__CTOR_LIST__>:
	...

0000015e <__CTOR_END__>:
	...

00000166 <__DTOR_END__>:
	...
